target datalayout = "e-m:e-p270:32:32-p271:32:32-p272:64:64-i64:64-i128:128-f80:128-n8:16:32:64-S128"
target triple = "x86_64-pc-linux-gnu"

%struct.QMetaObject = type { %"struct.QMetaObject::Data" }
%"struct.QMetaObject::Data" = type { %"struct.QMetaObject::SuperData", ptr, ptr, ptr, ptr, ptr, ptr }
%"struct.QMetaObject::SuperData" = type { ptr }
%class.QModelIndex = type { i32, i32, i64, ptr }
%class.QFlags = type { i32 }
%class.QFlag = type { i32 }

@_ZL19gbl_cur_packet_list = internal global ptr null, align 8
@_ZN15PacketListModel16staticMetaObjectE = external global %struct.QMetaObject, align 8

; Function Attrs: mustprogress nounwind uwtable
define linkonce_odr noundef i32 @_ZNK5QFlagcvjEv(ptr noundef nonnull align 4 dereferenceable(4) %0) #2 comdat align 2 {
  %2 = alloca ptr, align 8
  store ptr %0, ptr %2, align 8
  %3 = load ptr, ptr %2, align 8
  %4 = getelementptr inbounds %class.QFlag, ptr %3, i32 0, i32 0
  %5 = load i32, ptr %4, align 4
  ret i32 %5
}

; Function Attrs: mustprogress nounwind uwtable
define linkonce_odr void @_ZN6QFlagsIN19QItemSelectionModel13SelectionFlagEEC2E5QFlag(ptr noundef nonnull align 4 dereferenceable(4) %0, i32 %1) unnamed_addr #2 comdat align 2 {
  %3 = alloca %class.QFlag, align 4
  %4 = alloca ptr, align 8
  %5 = getelementptr inbounds %class.QFlag, ptr %3, i32 0, i32 0
  store i32 %1, ptr %5, align 4
  store ptr %0, ptr %4, align 8
  %6 = load ptr, ptr %4, align 8
  %7 = getelementptr inbounds %class.QFlags, ptr %6, i32 0, i32 0
  %8 = call noundef i32 @_ZNK5QFlagcvjEv(ptr noundef nonnull align 4 dereferenceable(4) %3) #16
  store i32 %8, ptr %7, align 4
  ret void
}

; Function Attrs: mustprogress nounwind uwtable
define linkonce_odr void @_ZN5QFlagC2Ej(ptr noundef nonnull align 4 dereferenceable(4) %0, i32 noundef %1) unnamed_addr #2 comdat align 2 {
  %3 = alloca ptr, align 8
  %4 = alloca i32, align 4
  store ptr %0, ptr %3, align 8
  store i32 %1, ptr %4, align 4
  %5 = load ptr, ptr %3, align 8
  %6 = getelementptr inbounds %class.QFlag, ptr %5, i32 0, i32 0
  %7 = load i32, ptr %4, align 4
  store i32 %7, ptr %6, align 4
  ret void
}

; Function Attrs: mustprogress nounwind uwtable
define linkonce_odr i32 @_ZNK6QFlagsIN19QItemSelectionModel13SelectionFlagEEorES1_(ptr noundef nonnull align 4 dereferenceable(4) %0, i32 noundef %1) #2 comdat align 2 {
  %3 = alloca %class.QFlags, align 4
  %4 = alloca ptr, align 8
  %5 = alloca i32, align 4
  %6 = alloca %class.QFlag, align 4
  store ptr %0, ptr %4, align 8
  store i32 %1, ptr %5, align 4
  %7 = load ptr, ptr %4, align 8
  %8 = getelementptr inbounds %class.QFlags, ptr %7, i32 0, i32 0
  %9 = load i32, ptr %8, align 4
  %10 = load i32, ptr %5, align 4
  %11 = or i32 %9, %10
  call void @_ZN5QFlagC2Ej(ptr noundef nonnull align 4 dereferenceable(4) %6, i32 noundef %11) #16
  %12 = getelementptr inbounds %class.QFlag, ptr %6, i32 0, i32 0
  %13 = load i32, ptr %12, align 4
  call void @_ZN6QFlagsIN19QItemSelectionModel13SelectionFlagEEC2E5QFlag(ptr noundef nonnull align 4 dereferenceable(4) %3, i32 %13) #16
  %14 = getelementptr inbounds %class.QFlags, ptr %3, i32 0, i32 0
  %15 = load i32, ptr %14, align 4
  ret i32 %15
}

; Function Attrs: mustprogress nounwind uwtable
define linkonce_odr void @_ZN6QFlagsIN19QItemSelectionModel13SelectionFlagEEC2ES1_(ptr noundef nonnull align 4 dereferenceable(4) %0, i32 noundef %1) unnamed_addr #2 comdat align 2 {
  %3 = alloca ptr, align 8
  %4 = alloca i32, align 4
  store ptr %0, ptr %3, align 8
  store i32 %1, ptr %4, align 4
  %5 = load ptr, ptr %3, align 8
  %6 = getelementptr inbounds %class.QFlags, ptr %5, i32 0, i32 0
  %7 = load i32, ptr %4, align 4
  store i32 %7, ptr %6, align 4
  ret void
}

; Function Attrs: mustprogress uwtable
define linkonce_odr noundef ptr @_ZNK11QMetaObject4castEP7QObject(ptr noundef nonnull align 8 dereferenceable(56) %0, ptr noundef %1) #0 comdat align 2 {
  %3 = alloca ptr, align 8
  %4 = alloca ptr, align 8
  store ptr %0, ptr %3, align 8
  store ptr %1, ptr %4, align 8
  %5 = load ptr, ptr %3, align 8
  %6 = load ptr, ptr %4, align 8
  %7 = call noundef ptr @_ZNK11QMetaObject4castEPK7QObject(ptr noundef nonnull align 8 dereferenceable(56) %5, ptr noundef %6)
  ret ptr %7
}

; Function Attrs: mustprogress nounwind uwtable
define linkonce_odr i32 @_ZorN19QItemSelectionModel13SelectionFlagES0_(i32 noundef %0, i32 noundef %1) #2 comdat {
  %3 = alloca %class.QFlags, align 4
  %4 = alloca i32, align 4
  %5 = alloca i32, align 4
  %6 = alloca %class.QFlags, align 4
  store i32 %0, ptr %4, align 4
  store i32 %1, ptr %5, align 4
  %7 = load i32, ptr %4, align 4
  call void @_ZN6QFlagsIN19QItemSelectionModel13SelectionFlagEEC2ES1_(ptr noundef nonnull align 4 dereferenceable(4) %6, i32 noundef %7) #16
  %8 = load i32, ptr %5, align 4
  %9 = call i32 @_ZNK6QFlagsIN19QItemSelectionModel13SelectionFlagEEorES1_(ptr noundef nonnull align 4 dereferenceable(4) %6, i32 noundef %8) #16
  %10 = getelementptr inbounds %class.QFlags, ptr %3, i32 0, i32 0
  store i32 %9, ptr %10, align 4
  %11 = getelementptr inbounds %class.QFlags, ptr %3, i32 0, i32 0
  %12 = load i32, ptr %11, align 4
  ret i32 %12
}

; Function Attrs: mustprogress nounwind uwtable
define linkonce_odr void @_ZN11QModelIndexC2Ev(ptr noundef nonnull align 8 dereferenceable(24) %0) unnamed_addr #2 comdat align 2 {
  %2 = alloca ptr, align 8
  store ptr %0, ptr %2, align 8
  %3 = load ptr, ptr %2, align 8
  %4 = getelementptr inbounds %class.QModelIndex, ptr %3, i32 0, i32 0
  store i32 -1, ptr %4, align 8
  %5 = getelementptr inbounds %class.QModelIndex, ptr %3, i32 0, i32 1
  store i32 -1, ptr %5, align 4
  %6 = getelementptr inbounds %class.QModelIndex, ptr %3, i32 0, i32 2
  store i64 0, ptr %6, align 8
  %7 = getelementptr inbounds %class.QModelIndex, ptr %3, i32 0, i32 3
  store ptr null, ptr %7, align 8
  ret void
}

; Function Attrs: mustprogress uwtable
define linkonce_odr noundef ptr @_Z12qobject_castIP15PacketListModelET_P7QObject(ptr noundef %0) #0 comdat {
  %2 = alloca ptr, align 8
  store ptr %0, ptr %2, align 8
  %3 = load ptr, ptr %2, align 8
  %4 = call noundef ptr @_ZNK11QMetaObject4castEP7QObject(ptr noundef nonnull align 8 dereferenceable(56) @_ZN15PacketListModel16staticMetaObjectE, ptr noundef %3)
  ret ptr %4
}

; Function Attrs: mustprogress uwtable
define i32 @packet_list_select_row_from_data(ptr noundef %0) #0 {
  %2 = alloca i32, align 4
  %3 = alloca ptr, align 8
  %4 = alloca ptr, align 8
  %5 = alloca i32, align 4
  %6 = alloca %class.QModelIndex, align 8
  %7 = alloca %class.QModelIndex, align 8
  %8 = alloca %class.QFlags, align 4
  %9 = alloca %class.QModelIndex, align 8
  store ptr %0, ptr %3, align 8
  %10 = load ptr, ptr @_ZL19gbl_cur_packet_list, align 8
  %11 = icmp ne ptr %10, null
  br i1 %11, label %12, label %16

12:                                               ; preds = %1
  %13 = load ptr, ptr @_ZL19gbl_cur_packet_list, align 8
  %14 = call noundef ptr @_ZNK17QAbstractItemView5modelEv(ptr noundef nonnull align 8 dereferenceable(40) %13)
  %15 = icmp ne ptr %14, null
  br i1 %15, label %17, label %16

16:                                               ; preds = %12, %1
  store i32 0, ptr %2, align 4
  br label %59

17:                                               ; preds = %12
  %18 = load ptr, ptr @_ZL19gbl_cur_packet_list, align 8
  %19 = call noundef ptr @_ZNK17QAbstractItemView5modelEv(ptr noundef nonnull align 8 dereferenceable(40) %18)
  %20 = call noundef ptr @_Z12qobject_castIP15PacketListModelET_P7QObject(ptr noundef %19)
  store ptr %20, ptr %4, align 8
  %21 = load ptr, ptr %4, align 8
  %22 = icmp ne ptr %21, null
  br i1 %22, label %24, label %23

23:                                               ; preds = %17
  store i32 0, ptr %2, align 4
  br label %59

24:                                               ; preds = %17
  %25 = load ptr, ptr %4, align 8
  call void @_ZN15PacketListModel16flushVisibleRowsEv(ptr noundef nonnull align 8 dereferenceable(164) %25)
  store i32 -1, ptr %5, align 4
  %26 = load ptr, ptr %3, align 8
  %27 = icmp ne ptr %26, null
  br i1 %27, label %29, label %28

28:                                               ; preds = %24
  store i32 0, ptr %5, align 4
  br label %33

29:                                               ; preds = %24
  %30 = load ptr, ptr %4, align 8
  %31 = load ptr, ptr %3, align 8
  %32 = call noundef i32 @_ZNK15PacketListModel14visibleIndexOfEP11_frame_data(ptr noundef nonnull align 8 dereferenceable(164) %30, ptr noundef %31)
  store i32 %32, ptr %5, align 4
  br label %33

33:                                               ; preds = %29, %28
  %34 = load i32, ptr %5, align 4
  %35 = icmp sge i32 %34, 0
  br i1 %35, label %36, label %58

36:                                               ; preds = %33
  %37 = load ptr, ptr @_ZL19gbl_cur_packet_list, align 8
  %38 = call noundef ptr @_ZNK17QAbstractItemView14selectionModelEv(ptr noundef nonnull align 8 dereferenceable(40) %37)
  call void @_ZN19QItemSelectionModel14clearSelectionEv(ptr noundef nonnull align 8 dereferenceable(16) %38)
  %39 = load ptr, ptr @_ZL19gbl_cur_packet_list, align 8
  %40 = call noundef ptr @_ZNK17QAbstractItemView14selectionModelEv(ptr noundef nonnull align 8 dereferenceable(40) %39)
  %41 = load ptr, ptr %4, align 8
  %42 = load i32, ptr %5, align 4
  call void @_ZN11QModelIndexC2Ev(ptr noundef nonnull align 8 dereferenceable(24) %7) #16
  %43 = load ptr, ptr %41, align 8
  %44 = getelementptr inbounds ptr, ptr %43, i64 12
  %45 = load ptr, ptr %44, align 8
  call void %45(ptr dead_on_unwind writable sret(%class.QModelIndex) align 8 %6, ptr noundef nonnull align 8 dereferenceable(164) %41, i32 noundef %42, i32 noundef 0, ptr noundef nonnull align 8 dereferenceable(24) %7)
  %46 = call i32 @_ZorN19QItemSelectionModel13SelectionFlagES0_(i32 noundef 3, i32 noundef 32) #16
  %47 = getelementptr inbounds %class.QFlags, ptr %8, i32 0, i32 0
  store i32 %46, ptr %47, align 4
  %48 = getelementptr inbounds %class.QFlags, ptr %8, i32 0, i32 0
  %49 = load i32, ptr %48, align 4
  %50 = load ptr, ptr %40, align 8
  %51 = getelementptr inbounds ptr, ptr %50, i64 12
  %52 = load ptr, ptr %51, align 8
  call void %52(ptr noundef nonnull align 8 dereferenceable(16) %40, ptr noundef nonnull align 8 dereferenceable(24) %6, i32 %49)
  %53 = load ptr, ptr @_ZL19gbl_cur_packet_list, align 8
  %54 = load ptr, ptr @_ZL19gbl_cur_packet_list, align 8
  call void @_ZNK17QAbstractItemView12currentIndexEv(ptr dead_on_unwind writable sret(%class.QModelIndex) align 8 %9, ptr noundef nonnull align 8 dereferenceable(40) %54)
  %55 = load ptr, ptr %53, align 8
  %56 = getelementptr inbounds ptr, ptr %55, i64 61
  %57 = load ptr, ptr %56, align 8
  call void %57(ptr noundef nonnull align 8 dereferenceable(464) %53, ptr noundef nonnull align 8 dereferenceable(24) %9, i32 noundef 3)
  store i32 1, ptr %2, align 4
  br label %59

58:                                               ; preds = %33
  store i32 0, ptr %2, align 4
  br label %59

59:                                               ; preds = %58, %36, %23, %16
  %60 = load i32, ptr %2, align 4
  ret i32 %60
}