; Function Attrs: mustprogress uwtable
define noundef i32 @packet_list_select_row_from_data(ptr noundef %0) local_unnamed_addr #0 {
  %2 = alloca %class.QModelIndex, align 8
  %3 = alloca %class.QModelIndex, align 8
  %4 = alloca %class.QModelIndex, align 8
  %5 = load ptr, ptr @_ZL19gbl_cur_packet_list, align 8
  %.not = icmp eq ptr %5, null
  br i1 %.not, label %32, label %6

6:                                                ; preds = %1
  %7 = tail call noundef ptr @_ZNK17QAbstractItemView5modelEv(ptr noundef nonnull align 8 dereferenceable(40) %5)
  %.not12 = icmp eq ptr %7, null
  br i1 %.not12, label %32, label %8

8:                                                ; preds = %6
  %9 = load ptr, ptr @_ZL19gbl_cur_packet_list, align 8
  %10 = tail call noundef ptr @_ZNK17QAbstractItemView5modelEv(ptr noundef nonnull align 8 dereferenceable(40) %9)
  %11 = tail call noundef ptr @_ZNK11QMetaObject4castEPK7QObject(ptr noundef nonnull align 8 dereferenceable(56) @_ZN15PacketListModel16staticMetaObjectE, ptr noundef %10)
  %.not13 = icmp eq ptr %11, null
  br i1 %.not13, label %32, label %12

12:                                               ; preds = %8
  tail call void @_ZN15PacketListModel16flushVisibleRowsEv(ptr noundef nonnull align 8 dereferenceable(164) %11)
  %.not14 = icmp eq ptr %0, null
  br i1 %.not14, label %.thread, label %13

13:                                               ; preds = %12
  %14 = tail call noundef i32 @_ZNK15PacketListModel14visibleIndexOfEP11_frame_data(ptr noundef nonnull align 8 dereferenceable(164) %11, ptr noundef nonnull %0)
  %15 = icmp sgt i32 %14, -1
  br i1 %15, label %.thread, label %32

.thread:                                          ; preds = %12, %13
  %.0816 = phi i32 [ %14, %13 ], [ 0, %12 ]
  %16 = load ptr, ptr @_ZL19gbl_cur_packet_list, align 8
  %17 = tail call noundef ptr @_ZNK17QAbstractItemView14selectionModelEv(ptr noundef nonnull align 8 dereferenceable(40) %16)
  tail call void @_ZN19QItemSelectionModel14clearSelectionEv(ptr noundef nonnull align 8 dereferenceable(16) %17)
  %18 = load ptr, ptr @_ZL19gbl_cur_packet_list, align 8
  %19 = tail call noundef ptr @_ZNK17QAbstractItemView14selectionModelEv(ptr noundef nonnull align 8 dereferenceable(40) %18)
  store i32 -1, ptr %3, align 8
  %20 = getelementptr inbounds i8, ptr %3, i64 4
  store i32 -1, ptr %20, align 4
  %21 = getelementptr inbounds i8, ptr %3, i64 8
  call void @llvm.memset.p0.i64(ptr noundef nonnull align 8 dereferenceable(16) %21, i8 0, i64 16, i1 false)
  %22 = load ptr, ptr %11, align 8
  %23 = getelementptr inbounds i8, ptr %22, i64 96
  %24 = load ptr, ptr %23, align 8
  call void %24(ptr dead_on_unwind nonnull writable sret(%class.QModelIndex) align 8 %2, ptr noundef nonnull align 8 dereferenceable(164) %11, i32 noundef %.0816, i32 noundef 0, ptr noundef nonnull align 8 dereferenceable(24) %3)
  %25 = load ptr, ptr %19, align 8
  %26 = getelementptr inbounds i8, ptr %25, i64 96
  %27 = load ptr, ptr %26, align 8
  call void %27(ptr noundef nonnull align 8 dereferenceable(16) %19, ptr noundef nonnull align 8 dereferenceable(24) %2, i32 35)
  %28 = load ptr, ptr @_ZL19gbl_cur_packet_list, align 8
  call void @_ZNK17QAbstractItemView12currentIndexEv(ptr dead_on_unwind nonnull writable sret(%class.QModelIndex) align 8 %4, ptr noundef nonnull align 8 dereferenceable(40) %28)
  %29 = load ptr, ptr %28, align 8
  %30 = getelementptr inbounds i8, ptr %29, i64 488
  %31 = load ptr, ptr %30, align 8
  call void %31(ptr noundef nonnull align 8 dereferenceable(464) %28, ptr noundef nonnull align 8 dereferenceable(24) %4, i32 noundef 3)
  br label %32

32:                                               ; preds = %13, %8, %1, %6, %.thread
  %.0 = phi i32 [ 1, %.thread ], [ 0, %6 ], [ 0, %1 ], [ 0, %8 ], [ 0, %13 ]
  ret i32 %.0
}